target datalayout = "e-m:e-p270:32:32-p271:32:32-p272:64:64-i64:64-i128:128-f80:128-n8:16:32:64-S128"
target triple = "x86_64-pc-linux-gnu"

%class.SubAllocator = type { i64, [38 x i8], [128 x i8], i8, ptr, ptr, ptr, [38 x %"struct.SubAllocator::RAR_NODE"], ptr, ptr, ptr, ptr }
%"struct.SubAllocator::RAR_NODE" = type { ptr }

; Function Attrs: mustprogress nounwind uwtable
define void @_ZN12SubAllocator16StopSubAllocatorEv(ptr noundef nonnull align 8 dereferenceable(536) %0) #1 align 2 {
  %2 = alloca ptr, align 8
  store ptr %0, ptr %2, align 8
  %3 = load ptr, ptr %2, align 8
  %4 = getelementptr inbounds %class.SubAllocator, ptr %3, i32 0, i32 0
  %5 = load i64, ptr %4, align 8
  %6 = icmp ne i64 %5, 0
  br i1 %6, label %7, label %11

7:                                                ; preds = %1
  %8 = getelementptr inbounds %class.SubAllocator, ptr %3, i32 0, i32 0
  store i64 0, ptr %8, align 8
  %9 = getelementptr inbounds %class.SubAllocator, ptr %3, i32 0, i32 4
  %10 = load ptr, ptr %9, align 8
  call void @free(ptr noundef %10) #12
  br label %11

11:                                               ; preds = %7, %1
  ret void
}