; Function Attrs: mustprogress nounwind willreturn uwtable
define void @_ZN12SubAllocator16StopSubAllocatorEv(ptr nocapture noundef nonnull align 8 dereferenceable(536) %0) local_unnamed_addr #2 align 2 {
  %2 = load i64, ptr %0, align 8
  %.not = icmp eq i64 %2, 0
  br i1 %.not, label %6, label %3

3:                                                ; preds = %1
  store i64 0, ptr %0, align 8
  %4 = getelementptr inbounds i8, ptr %0, i64 176
  %5 = load ptr, ptr %4, align 8
  tail call void @free(ptr noundef %5) #21
  br label %6

6:                                                ; preds = %3, %1
  ret void
}